; Function Attrs: mustprogress nofree norecurse nosync nounwind willreturn memory(none) uwtable
define zeroext range(i8 0, 5) i8 @lv_color_format_get_size(i32 noundef %0) local_unnamed_addr #1 {
  %switch.tableidx = add i32 %0, -6
  %2 = icmp ult i32 %switch.tableidx, 33
  br i1 %2, label %switch.lookup, label %lv_color_format_get_bpp.exit

switch.lookup:                                    ; preds = %1
  %3 = zext nneg i32 %switch.tableidx to i64
  %switch.gep = getelementptr inbounds [33 x i8], ptr @switch.table.lv_color_format_get_size, i64 0, i64 %3
  %switch.load = load i8, ptr %switch.gep, align 1
  br label %lv_color_format_get_bpp.exit

lv_color_format_get_bpp.exit:                     ; preds = %1, %switch.lookup
  %.0.i = phi i8 [ %switch.load, %switch.lookup ], [ 0, %1 ]
  ret i8 %.0.i
}